target datalayout = "e-m:e-p270:32:32-p271:32:32-p272:64:64-i64:64-i128:128-f80:128-n8:16:32:64-S128"
target triple = "x86_64-pc-linux-gnu"

%struct.ForEachState = type { ptr, i32 }
%union.ListCell = type { ptr }
%struct.List = type { i32, i32, i32, ptr, [0 x %union.ListCell] }
%struct.FromExpr = type { i32, ptr, ptr }
%struct.Node = type { i32 }
%struct.JoinExpr = type { i32, i32, i8, ptr, ptr, ptr, ptr, ptr, ptr, i32 }

@.str.2 = private unnamed_addr constant [15 x i8] c"prepjointree.c\00", align 1
@.str.5 = private unnamed_addr constant [27 x i8] c"unrecognized node type: %d\00", align 1
@__func__.jointree_contains_lateral_outer_refs = private unnamed_addr constant [37 x i8] c"jointree_contains_lateral_outer_refs\00", align 1

; Function Attrs: nounwind uwtable
define internal zeroext i1 @jointree_contains_lateral_outer_refs(ptr noundef %0, ptr noundef %1, i1 noundef zeroext %2, ptr noundef %3) #0 {
  %5 = alloca i1, align 1
  %6 = alloca ptr, align 8
  %7 = alloca ptr, align 8
  %8 = alloca i8, align 1
  %9 = alloca ptr, align 8
  %10 = alloca ptr, align 8
  %11 = alloca ptr, align 8
  %12 = alloca %struct.ForEachState, align 8
  %13 = alloca i32, align 4
  %14 = alloca ptr, align 8
  store ptr %0, ptr %6, align 8
  store ptr %1, ptr %7, align 8
  %15 = zext i1 %2 to i8
  store i8 %15, ptr %8, align 1
  store ptr %3, ptr %9, align 8
  %16 = load ptr, ptr %7, align 8
  %17 = icmp eq ptr %16, null
  br i1 %17, label %18, label %19

18:                                               ; preds = %4
  store i1 false, ptr %5, align 1
  br label %160

19:                                               ; preds = %4
  %20 = load ptr, ptr %7, align 8
  %21 = getelementptr inbounds nuw %struct.Node, ptr %20, i32 0, i32 0
  %22 = load i32, ptr %21, align 4
  %23 = icmp eq i32 %22, 63
  br i1 %23, label %24, label %25

24:                                               ; preds = %19
  store i1 false, ptr %5, align 1
  br label %160

25:                                               ; preds = %19
  %26 = load ptr, ptr %7, align 8
  %27 = getelementptr inbounds nuw %struct.Node, ptr %26, i32 0, i32 0
  %28 = load i32, ptr %27, align 4
  %29 = icmp eq i32 %28, 65
  br i1 %29, label %30, label %96

30:                                               ; preds = %25
  call void @llvm.lifetime.start.p0(i64 8, ptr %10) #8
  %31 = load ptr, ptr %7, align 8
  store ptr %31, ptr %10, align 8
  call void @llvm.lifetime.start.p0(i64 8, ptr %11) #8
  call void @llvm.lifetime.start.p0(i64 16, ptr %12) #8
  %32 = getelementptr inbounds nuw %struct.ForEachState, ptr %12, i32 0, i32 0
  %33 = load ptr, ptr %10, align 8
  %34 = getelementptr inbounds nuw %struct.FromExpr, ptr %33, i32 0, i32 1
  %35 = load ptr, ptr %34, align 8
  store ptr %35, ptr %32, align 8
  %36 = getelementptr inbounds nuw %struct.ForEachState, ptr %12, i32 0, i32 1
  store i32 0, ptr %36, align 8
  %37 = getelementptr i8, ptr %12, i64 12
  call void @llvm.memset.p0.i64(ptr align 4 %37, i8 0, i64 4, i1 false)
  br label %38

38:                                               ; preds = %74, %30
  %39 = getelementptr inbounds nuw %struct.ForEachState, ptr %12, i32 0, i32 0
  %40 = load ptr, ptr %39, align 8
  %41 = icmp ne ptr %40, null
  br i1 %41, label %42, label %59

42:                                               ; preds = %38
  %43 = getelementptr inbounds nuw %struct.ForEachState, ptr %12, i32 0, i32 1
  %44 = load i32, ptr %43, align 8
  %45 = getelementptr inbounds nuw %struct.ForEachState, ptr %12, i32 0, i32 0
  %46 = load ptr, ptr %45, align 8
  %47 = getelementptr inbounds nuw %struct.List, ptr %46, i32 0, i32 1
  %48 = load i32, ptr %47, align 4
  %49 = icmp slt i32 %44, %48
  br i1 %49, label %50, label %59

50:                                               ; preds = %42
  %51 = getelementptr inbounds nuw %struct.ForEachState, ptr %12, i32 0, i32 0
  %52 = load ptr, ptr %51, align 8
  %53 = getelementptr inbounds nuw %struct.List, ptr %52, i32 0, i32 3
  %54 = load ptr, ptr %53, align 8
  %55 = getelementptr inbounds nuw %struct.ForEachState, ptr %12, i32 0, i32 1
  %56 = load i32, ptr %55, align 8
  %57 = sext i32 %56 to i64
  %58 = getelementptr inbounds %union.ListCell, ptr %54, i64 %57
  store ptr %58, ptr %11, align 8
  br label %60

59:                                               ; preds = %42, %38
  store ptr null, ptr %11, align 8
  br label %60

60:                                               ; preds = %59, %50
  %61 = phi i32 [ 1, %50 ], [ 0, %59 ]
  %62 = icmp ne i32 %61, 0
  br i1 %62, label %64, label %63

63:                                               ; preds = %60
  store i32 2, ptr %13, align 4
  br label %78

64:                                               ; preds = %60
  %65 = load ptr, ptr %6, align 8
  %66 = load ptr, ptr %11, align 8
  %67 = load ptr, ptr %66, align 8
  %68 = load i8, ptr %8, align 1, !range !7, !noundef !8
  %69 = trunc i8 %68 to i1
  %70 = load ptr, ptr %9, align 8
  %71 = call zeroext i1 @jointree_contains_lateral_outer_refs(ptr noundef %65, ptr noundef %67, i1 noundef zeroext %69, ptr noundef %70)
  br i1 %71, label %72, label %73

72:                                               ; preds = %64
  store i1 true, ptr %5, align 1
  store i32 1, ptr %13, align 4
  br label %78

73:                                               ; preds = %64
  br label %74

74:                                               ; preds = %73
  %75 = getelementptr inbounds nuw %struct.ForEachState, ptr %12, i32 0, i32 1
  %76 = load i32, ptr %75, align 8
  %77 = add i32 %76, 1
  store i32 %77, ptr %75, align 8
  br label %38, !llvm.loop !28

78:                                               ; preds = %72, %63
  call void @llvm.lifetime.end.p0(i64 16, ptr %12) #8
  %79 = load i32, ptr %13, align 4
  switch i32 %79, label %93 [
    i32 2, label %80
  ]

80:                                               ; preds = %78
  %81 = load i8, ptr %8, align 1, !range !7, !noundef !8
  %82 = trunc i8 %81 to i1
  br i1 %82, label %83, label %92

83:                                               ; preds = %80
  %84 = load ptr, ptr %6, align 8
  %85 = load ptr, ptr %10, align 8
  %86 = getelementptr inbounds nuw %struct.FromExpr, ptr %85, i32 0, i32 2
  %87 = load ptr, ptr %86, align 8
  %88 = call ptr @pull_varnos_of_level(ptr noundef %84, ptr noundef %87, i32 noundef 1)
  %89 = load ptr, ptr %9, align 8
  %90 = call zeroext i1 @bms_is_subset(ptr noundef %88, ptr noundef %89)
  br i1 %90, label %92, label %91

91:                                               ; preds = %83
  store i1 true, ptr %5, align 1
  store i32 1, ptr %13, align 4
  br label %93

92:                                               ; preds = %83, %80
  store i32 0, ptr %13, align 4
  br label %93

93:                                               ; preds = %92, %91, %78
  call void @llvm.lifetime.end.p0(i64 8, ptr %11) #8
  call void @llvm.lifetime.end.p0(i64 8, ptr %10) #8
  %94 = load i32, ptr %13, align 4
  switch i32 %94, label %162 [
    i32 0, label %95
    i32 1, label %160
  ]

95:                                               ; preds = %93
  br label %158

96:                                               ; preds = %25
  %97 = load ptr, ptr %7, align 8
  %98 = getelementptr inbounds nuw %struct.Node, ptr %97, i32 0, i32 0
  %99 = load i32, ptr %98, align 4
  %100 = icmp eq i32 %99, 64
  br i1 %100, label %101, label %144

101:                                              ; preds = %96
  call void @llvm.lifetime.start.p0(i64 8, ptr %14) #8
  %102 = load ptr, ptr %7, align 8
  store ptr %102, ptr %14, align 8
  %103 = load ptr, ptr %14, align 8
  %104 = getelementptr inbounds nuw %struct.JoinExpr, ptr %103, i32 0, i32 1
  %105 = load i32, ptr %104, align 4
  %106 = icmp ne i32 %105, 0
  br i1 %106, label %107, label %108

107:                                              ; preds = %101
  store i8 1, ptr %8, align 1
  store ptr null, ptr %9, align 8
  br label %108

108:                                              ; preds = %107, %101
  %109 = load ptr, ptr %6, align 8
  %110 = load ptr, ptr %14, align 8
  %111 = getelementptr inbounds nuw %struct.JoinExpr, ptr %110, i32 0, i32 3
  %112 = load ptr, ptr %111, align 8
  %113 = load i8, ptr %8, align 1, !range !7, !noundef !8
  %114 = trunc i8 %113 to i1
  %115 = load ptr, ptr %9, align 8
  %116 = call zeroext i1 @jointree_contains_lateral_outer_refs(ptr noundef %109, ptr noundef %112, i1 noundef zeroext %114, ptr noundef %115)
  br i1 %116, label %117, label %118

117:                                              ; preds = %108
  store i1 true, ptr %5, align 1
  store i32 1, ptr %13, align 4
  br label %141

118:                                              ; preds = %108
  %119 = load ptr, ptr %6, align 8
  %120 = load ptr, ptr %14, align 8
  %121 = getelementptr inbounds nuw %struct.JoinExpr, ptr %120, i32 0, i32 4
  %122 = load ptr, ptr %121, align 8
  %123 = load i8, ptr %8, align 1, !range !7, !noundef !8
  %124 = trunc i8 %123 to i1
  %125 = load ptr, ptr %9, align 8
  %126 = call zeroext i1 @jointree_contains_lateral_outer_refs(ptr noundef %119, ptr noundef %122, i1 noundef zeroext %124, ptr noundef %125)
  br i1 %126, label %127, label %128

127:                                              ; preds = %118
  store i1 true, ptr %5, align 1
  store i32 1, ptr %13, align 4
  br label %141

128:                                              ; preds = %118
  %129 = load i8, ptr %8, align 1, !range !7, !noundef !8
  %130 = trunc i8 %129 to i1
  br i1 %130, label %131, label %140

131:                                              ; preds = %128
  %132 = load ptr, ptr %6, align 8
  %133 = load ptr, ptr %14, align 8
  %134 = getelementptr inbounds nuw %struct.JoinExpr, ptr %133, i32 0, i32 7
  %135 = load ptr, ptr %134, align 8
  %136 = call ptr @pull_varnos_of_level(ptr noundef %132, ptr noundef %135, i32 noundef 1)
  %137 = load ptr, ptr %9, align 8
  %138 = call zeroext i1 @bms_is_subset(ptr noundef %136, ptr noundef %137)
  br i1 %138, label %140, label %139

139:                                              ; preds = %131
  store i1 true, ptr %5, align 1
  store i32 1, ptr %13, align 4
  br label %141

140:                                              ; preds = %131, %128
  store i32 0, ptr %13, align 4
  br label %141

141:                                              ; preds = %140, %139, %127, %117
  call void @llvm.lifetime.end.p0(i64 8, ptr %14) #8
  %142 = load i32, ptr %13, align 4
  switch i32 %142, label %162 [
    i32 0, label %143
    i32 1, label %160
  ]

143:                                              ; preds = %141
  br label %157

144:                                              ; preds = %96
  br label %145

145:                                              ; preds = %144
  br i1 true, label %146, label %148

146:                                              ; preds = %145
  %147 = call zeroext i1 @errstart_cold(i32 noundef 21, ptr noundef null) #9
  br i1 %147, label %150, label %155

148:                                              ; preds = %145
  %149 = call zeroext i1 @errstart(i32 noundef 21, ptr noundef null)
  br i1 %149, label %150, label %155

150:                                              ; preds = %148, %146
  %151 = load ptr, ptr %7, align 8
  %152 = getelementptr inbounds nuw %struct.Node, ptr %151, i32 0, i32 0
  %153 = load i32, ptr %152, align 4
  %154 = call i32 (ptr, ...) @errmsg_internal(ptr noundef @.str.5, i32 noundef %153)
  call void @errfinish(ptr noundef @.str.2, i32 noundef 2249, ptr noundef @__func__.jointree_contains_lateral_outer_refs)
  br label %155

155:                                              ; preds = %150, %148, %146
  unreachable

156:                                              ; No predecessors!
  br label %157

157:                                              ; preds = %156, %143
  br label %158

158:                                              ; preds = %157, %95
  br label %159

159:                                              ; preds = %158
  store i1 false, ptr %5, align 1
  br label %160

160:                                              ; preds = %159, %141, %93, %24, %18
  %161 = load i1, ptr %5, align 1
  ret i1 %161

162:                                              ; preds = %141, %93
  unreachable
}