; Function Attrs: nounwind uwtable
define internal fastcc noundef zeroext i1 @jointree_contains_lateral_outer_refs(ptr noundef %0, ptr noundef readonly captures(address_is_null) %1, i1 noundef zeroext %2, ptr noundef %3) unnamed_addr #0 {
  %5 = icmp eq ptr %1, null
  br i1 %5, label %48, label %6

6:                                                ; preds = %4
  %7 = load i32, ptr %1, align 4
  switch i32 %7, label %44 [
    i32 63, label %48
    i32 65, label %8
    i32 64, label %28
  ]

8:                                                ; preds = %6
  %9 = getelementptr inbounds nuw i8, ptr %1, i64 8
  %10 = load ptr, ptr %9, align 8
  %.not45 = icmp eq ptr %10, null
  br i1 %.not45, label %.critedge, label %.lr.ph

.lr.ph:                                           ; preds = %8
  %11 = getelementptr inbounds nuw i8, ptr %10, i64 4
  %12 = getelementptr inbounds nuw i8, ptr %10, i64 16
  %13 = load i32, ptr %11, align 4
  %14 = icmp sgt i32 %13, 0
  br i1 %14, label %.lr.ph63, label %.critedge

15:                                               ; preds = %.lr.ph63
  %indvars.iv.next = add nuw nsw i64 %indvars.iv, 1
  %16 = load i32, ptr %11, align 4
  %17 = sext i32 %16 to i64
  %18 = icmp slt i64 %indvars.iv.next, %17
  br i1 %18, label %.lr.ph63, label %.critedge

.lr.ph63:                                         ; preds = %.lr.ph, %15
  %indvars.iv = phi i64 [ %indvars.iv.next, %15 ], [ 0, %.lr.ph ]
  %19 = load ptr, ptr %12, align 8
  %20 = getelementptr inbounds nuw %union.ListCell, ptr %19, i64 %indvars.iv
  %21 = load ptr, ptr %20, align 8
  %22 = tail call fastcc zeroext i1 @jointree_contains_lateral_outer_refs(ptr noundef %0, ptr noundef %21, i1 noundef zeroext %2, ptr noundef %3)
  br i1 %22, label %.thread53, label %15

.critedge:                                        ; preds = %15, %.lr.ph, %8
  br i1 %2, label %23, label %48

23:                                               ; preds = %.critedge
  %24 = getelementptr inbounds nuw i8, ptr %1, i64 16
  %25 = load ptr, ptr %24, align 8
  %26 = tail call ptr @pull_varnos_of_level(ptr noundef %0, ptr noundef %25, i32 noundef 1) #7
  %27 = tail call zeroext i1 @bms_is_subset(ptr noundef %26, ptr noundef %3) #7
  br i1 %27, label %48, label %.thread53

.thread53:                                        ; preds = %.lr.ph63, %23
  br label %48

28:                                               ; preds = %6
  %29 = getelementptr inbounds nuw i8, ptr %1, i64 4
  %30 = load i32, ptr %29, align 4
  %.not = icmp ne i32 %30, 0
  %spec.select = select i1 %.not, ptr null, ptr %3
  %spec.select47 = or i1 %2, %.not
  %31 = getelementptr inbounds nuw i8, ptr %1, i64 16
  %32 = load ptr, ptr %31, align 8
  %33 = tail call fastcc zeroext i1 @jointree_contains_lateral_outer_refs(ptr noundef %0, ptr noundef %32, i1 noundef zeroext %spec.select47, ptr noundef %spec.select)
  br i1 %33, label %.thread57, label %34

34:                                               ; preds = %28
  %35 = getelementptr inbounds nuw i8, ptr %1, i64 24
  %36 = load ptr, ptr %35, align 8
  %37 = tail call fastcc zeroext i1 @jointree_contains_lateral_outer_refs(ptr noundef %0, ptr noundef %36, i1 noundef zeroext %spec.select47, ptr noundef %spec.select)
  br i1 %37, label %.thread57, label %38

38:                                               ; preds = %34
  br i1 %spec.select47, label %39, label %48

39:                                               ; preds = %38
  %40 = getelementptr inbounds nuw i8, ptr %1, i64 48
  %41 = load ptr, ptr %40, align 8
  %42 = tail call ptr @pull_varnos_of_level(ptr noundef %0, ptr noundef %41, i32 noundef 1) #7
  %43 = tail call zeroext i1 @bms_is_subset(ptr noundef %42, ptr noundef %spec.select) #7
  br i1 %43, label %48, label %.thread57

.thread57:                                        ; preds = %28, %34, %39
  br label %48

44:                                               ; preds = %6
  %45 = tail call zeroext i1 @errstart_cold(i32 noundef 21, ptr noundef null) #8
  tail call void @llvm.assume(i1 %45)
  %46 = load i32, ptr %1, align 4
  %47 = tail call i32 (ptr, ...) @errmsg_internal(ptr noundef nonnull @.str.5, i32 noundef %46) #7
  tail call void @errfinish(ptr noundef nonnull @.str.2, i32 noundef 2249, ptr noundef nonnull @__func__.jointree_contains_lateral_outer_refs) #7
  unreachable

48:                                               ; preds = %.critedge, %23, %38, %39, %.thread57, %.thread53, %6, %4
  %.0 = phi i1 [ false, %4 ], [ false, %6 ], [ true, %.thread53 ], [ true, %.thread57 ], [ false, %39 ], [ false, %38 ], [ false, %23 ], [ false, %.critedge ]
  ret i1 %.0
}